Certificate:
    Data:
        Version: 3 (0x2)
        Serial Number: 5 (0x5)
    Signature Algorithm: sm2sign-with-sm3
        Issuer: C=CN, ST=shandong, L=jinan, O=cvicse, OU=inforguard, CN=localhost
        Validity
            Not Before: Feb  9 03:30:56 2023 GMT
            Not After : Feb  6 03:30:56 2033 GMT
        Subject: C=CN, ST=shandong, O=cvicse, OU=inforguard, CN=localhost
        Subject Public Key Info:
            Public Key Algorithm: id-ecPublicKey
                Public-Key: (256 bit)
                pub:
                    04:bf:3f:a2:e7:0f:68:66:5d:36:51:be:60:97:39:
                    37:8e:af:b5:2f:5f:f6:ee:fc:82:8e:2d:66:46:12:
                    d9:87:51:44:c6:5a:75:01:8f:36:dd:f6:8a:30:ad:
                    56:4c:cf:11:10:a7:b8:46:a6:f8:25:f3:26:13:ec:
                    41:e2:dd:c3:12
                ASN1 OID: sm2p256v1
                NIST CURVE: SM2
        X509v3 extensions:
            X509v3 Basic Constraints: 
                CA:FALSE
            X509v3 Key Usage: 
                Digital Signature, Non Repudiation, Key Encipherment
            Netscape Comment: 
                GmSSL Generated Certificate
            X509v3 Subject Key Identifier: 
                9A:43:E4:10:B2:B9:3D:EB:23:F7:71:BB:0F:F2:F1:BE:4D:3C:3F:E6
            X509v3 Authority Key Identifier: 
                keyid:4A:30:72:43:03:82:4A:81:0F:DF:CB:73:58:50:E1:F2:87:79:68:36

    Signature Algorithm: sm2sign-with-sm3
         30:45:02:20:65:24:d7:71:8f:e9:d8:6d:44:8f:f5:0c:93:b3:
         56:3e:ec:a3:4b:7e:b7:08:86:b1:68:a2:99:1b:6f:83:a8:ab:
         02:21:00:a9:b6:44:f8:0d:fc:d3:28:5f:9d:01:85:f1:c3:cd:
         3c:8a:f9:eb:c7:08:67:49:92:95:20:31:0f:96:18:48:a7
-----BEGIN CERTIFICATE-----
MIICOzCCAeGgAwIBAgIBBTAKBggqgRzPVQGDdTBqMQswCQYDVQQGEwJDTjERMA8G
A1UECAwIc2hhbmRvbmcxDjAMBgNVBAcMBWppbmFuMQ8wDQYDVQQKDAZjdmljc2Ux
EzARBgNVBAsMCmluZm9yZ3VhcmQxEjAQBgNVBAMMCWxvY2FsaG9zdDAeFw0yMzAy
MDkwMzMwNTZaFw0zMzAyMDYwMzMwNTZaMFoxCzAJBgNVBAYTAkNOMREwDwYDVQQI
DAhzaGFuZG9uZzEPMA0GA1UECgwGY3ZpY3NlMRMwEQYDVQQLDAppbmZvcmd1YXJk
MRIwEAYDVQQDDAlsb2NhbGhvc3QwWTATBgcqhkjOPQIBBggqgRzPVQGCLQNCAAS/
P6LnD2hmXTZRvmCXOTeOr7UvX/bu/IKOLWZGEtmHUUTGWnUBjzbd9oowrVZMzxEQ
p7hGpvgl8yYT7EHi3cMSo4GHMIGEMAkGA1UdEwQCMAAwCwYDVR0PBAQDAgXgMCoG
CWCGSAGG+EIBDQQdFhtHbVNTTCBHZW5lcmF0ZWQgQ2VydGlmaWNhdGUwHQYDVR0O
BBYEFJpD5BCyuT3rI/dxuw/y8b5NPD/mMB8GA1UdIwQYMBaAFEowckMDgkqBD9/L
c1hQ4fKHeWg2MAoGCCqBHM9VAYN1A0gAMEUCIGUk13GP6dhtRI/1DJOzVj7so0t+
twiGsWiimRtvg6irAiEAqbZE+A380yhfnQGF8cPNPIr568cIZ0mSlSAxD5YYSKc=
-----END CERTIFICATE-----
