Certificate:
    Data:
        Version: 3 (0x2)
        Serial Number: 3 (0x3)
    Signature Algorithm: sm2sign-with-sm3
        Issuer: C=CN, ST=shandong, L=jinan, O=cvicse, OU=inforguard, CN=localhost
        Validity
            Not Before: Feb  9 01:25:10 2023 GMT
            Not After : Feb  6 01:25:10 2033 GMT
        Subject: C=CN, ST=shandong, O=cvicse, OU=inforguard, CN=localhost
        Subject Public Key Info:
            Public Key Algorithm: id-ecPublicKey
                Public-Key: (256 bit)
                pub:
                    04:cb:74:37:11:d9:23:43:a8:05:e7:20:18:80:92:
                    3e:2f:30:6d:de:8c:db:fe:9c:9f:73:e7:9d:61:c4:
                    2e:8a:cc:91:be:2a:e4:ee:77:42:62:f5:5a:06:2a:
                    63:c3:2e:b6:c8:7f:77:01:b8:1a:f6:6e:84:fc:05:
                    b8:1e:b3:06:56
                ASN1 OID: sm2p256v1
                NIST CURVE: SM2
        X509v3 extensions:
            X509v3 Basic Constraints: 
                CA:FALSE
            X509v3 Key Usage: 
                Key Encipherment
            Netscape Comment: 
                GmSSL Generated Certificate
            X509v3 Subject Key Identifier: 
                56:DB:84:AE:CF:45:79:11:A8:42:72:48:D4:27:8E:50:9A:8C:23:3C
            X509v3 Authority Key Identifier: 
                keyid:4A:30:72:43:03:82:4A:81:0F:DF:CB:73:58:50:E1:F2:87:79:68:36

    Signature Algorithm: sm2sign-with-sm3
         30:45:02:21:00:af:d6:63:95:2a:87:8a:7a:da:e0:31:da:b9:
         af:cf:54:44:85:77:8a:09:c9:ba:7a:df:7a:3b:a1:22:31:37:
         05:02:20:1f:8c:dc:03:42:d5:b4:cb:7d:77:cf:8a:9b:e1:f0:
         ef:de:37:82:a3:6b:2d:0a:4d:54:72:80:e1:71:8f:13:42
-----BEGIN CERTIFICATE-----
MIICOzCCAeGgAwIBAgIBAzAKBggqgRzPVQGDdTBqMQswCQYDVQQGEwJDTjERMA8G
A1UECAwIc2hhbmRvbmcxDjAMBgNVBAcMBWppbmFuMQ8wDQYDVQQKDAZjdmljc2Ux
EzARBgNVBAsMCmluZm9yZ3VhcmQxEjAQBgNVBAMMCWxvY2FsaG9zdDAeFw0yMzAy
MDkwMTI1MTBaFw0zMzAyMDYwMTI1MTBaMFoxCzAJBgNVBAYTAkNOMREwDwYDVQQI
DAhzaGFuZG9uZzEPMA0GA1UECgwGY3ZpY3NlMRMwEQYDVQQLDAppbmZvcmd1YXJk
MRIwEAYDVQQDDAlsb2NhbGhvc3QwWTATBgcqhkjOPQIBBggqgRzPVQGCLQNCAATL
dDcR2SNDqAXnIBiAkj4vMG3ejNv+nJ9z551hxC6KzJG+KuTud0Ji9VoGKmPDLrbI
f3cBuBr2boT8BbgeswZWo4GHMIGEMAkGA1UdEwQCMAAwCwYDVR0PBAQDAgUgMCoG
CWCGSAGG+EIBDQQdFhtHbVNTTCBHZW5lcmF0ZWQgQ2VydGlmaWNhdGUwHQYDVR0O
BBYEFFbbhK7PRXkRqEJySNQnjlCajCM8MB8GA1UdIwQYMBaAFEowckMDgkqBD9/L
c1hQ4fKHeWg2MAoGCCqBHM9VAYN1A0gAMEUCIQCv1mOVKoeKetrgMdq5r89URIV3
ignJunrfejuhIjE3BQIgH4zcA0LVtMt9d8+Km+Hw7943gqNrLQpNVHKA4XGPE0I=
-----END CERTIFICATE-----
