Certificate:
    Data:
        Version: 3 (0x2)
        Serial Number: 4 (0x4)
    Signature Algorithm: sm2sign-with-sm3
        Issuer: C=CN, ST=shandong, L=jinan, O=cvicse, OU=inforguard, CN=localhost
        Validity
            Not Before: Feb  9 03:29:00 2023 GMT
            Not After : Feb  6 03:29:00 2033 GMT
        Subject: C=CN, ST=shandong, O=cvicse, OU=inforguard, CN=localhost
        Subject Public Key Info:
            Public Key Algorithm: id-ecPublicKey
                Public-Key: (256 bit)
                pub:
                    04:6c:ee:88:0b:43:c3:f0:4e:49:2a:10:7f:2b:bc:
                    af:3f:12:49:bb:94:0d:db:76:60:83:5e:52:c6:78:
                    c2:38:a1:62:2e:68:95:03:3e:2b:f6:a7:68:c4:5b:
                    b0:b2:b9:3a:47:9e:78:b0:f2:62:69:ac:b1:54:6b:
                    c4:fa:7b:0c:5f
                ASN1 OID: sm2p256v1
                NIST CURVE: SM2
        X509v3 extensions:
            X509v3 Basic Constraints: 
                CA:FALSE
            X509v3 Key Usage: 
                Digital Signature
            Netscape Comment: 
                GmSSL Generated Certificate
            X509v3 Subject Key Identifier: 
                E9:63:5E:14:4E:BB:C6:FE:00:30:E4:46:A6:EB:7B:0D:27:41:C6:B7
            X509v3 Authority Key Identifier: 
                keyid:4A:30:72:43:03:82:4A:81:0F:DF:CB:73:58:50:E1:F2:87:79:68:36

    Signature Algorithm: sm2sign-with-sm3
         30:45:02:20:0c:bd:31:28:a7:e1:d9:9e:3f:78:07:a8:0a:8c:
         4c:4d:1c:31:85:42:5d:b7:f0:c4:50:cd:07:c3:94:19:cf:22:
         02:21:00:a2:44:69:56:dd:7a:86:78:85:5b:b1:87:e9:ba:7d:
         6c:fa:1d:b9:c2:8f:2a:fb:4c:1b:5d:14:ae:e9:8d:9c:ac
-----BEGIN CERTIFICATE-----
MIICOzCCAeGgAwIBAgIBBDAKBggqgRzPVQGDdTBqMQswCQYDVQQGEwJDTjERMA8G
A1UECAwIc2hhbmRvbmcxDjAMBgNVBAcMBWppbmFuMQ8wDQYDVQQKDAZjdmljc2Ux
EzARBgNVBAsMCmluZm9yZ3VhcmQxEjAQBgNVBAMMCWxvY2FsaG9zdDAeFw0yMzAy
MDkwMzI5MDBaFw0zMzAyMDYwMzI5MDBaMFoxCzAJBgNVBAYTAkNOMREwDwYDVQQI
DAhzaGFuZG9uZzEPMA0GA1UECgwGY3ZpY3NlMRMwEQYDVQQLDAppbmZvcmd1YXJk
MRIwEAYDVQQDDAlsb2NhbGhvc3QwWTATBgcqhkjOPQIBBggqgRzPVQGCLQNCAARs
7ogLQ8PwTkkqEH8rvK8/Ekm7lA3bdmCDXlLGeMI4oWIuaJUDPiv2p2jEW7CyuTpH
nniw8mJprLFUa8T6ewxfo4GHMIGEMAkGA1UdEwQCMAAwCwYDVR0PBAQDAgeAMCoG
CWCGSAGG+EIBDQQdFhtHbVNTTCBHZW5lcmF0ZWQgQ2VydGlmaWNhdGUwHQYDVR0O
BBYEFOljXhROu8b+ADDkRqbrew0nQca3MB8GA1UdIwQYMBaAFEowckMDgkqBD9/L
c1hQ4fKHeWg2MAoGCCqBHM9VAYN1A0gAMEUCIAy9MSin4dmeP3gHqAqMTE0cMYVC
XbfwxFDNB8OUGc8iAiEAokRpVt16hniFW7GH6bp9bPoducKPKvtMG10UrumNnKw=
-----END CERTIFICATE-----
