Certificate:
    Data:
        Version: 3 (0x2)
        Serial Number: 1 (0x1)
    Signature Algorithm: sm2sign-with-sm3
        Issuer: C=CN, ST=shandong, L=jinan, O=cvicse, OU=inforguard, CN=localhost
        Validity
            Not Before: Feb 15 02:29:41 2023 GMT
            Not After : Feb 12 02:29:41 2033 GMT
        Subject: C=CN, ST=shandong, O=cvicse, OU=inforguard, CN=localhost
        Subject Public Key Info:
            Public Key Algorithm: id-ecPublicKey
                Public-Key: (256 bit)
                pub:
                    04:fe:5a:4e:22:23:4f:01:4e:64:44:c8:50:2a:bb:
                    63:7b:c7:a3:a3:30:ca:f7:fe:21:52:50:c7:06:fb:
                    dd:93:a1:83:e3:85:4d:e7:f3:67:56:9b:f1:a4:24:
                    20:e7:e2:0a:fb:79:99:db:a5:a9:1d:d2:b8:9b:ce:
                    a2:ec:a9:12:08
                ASN1 OID: sm2p256v1
                NIST CURVE: SM2
        X509v3 extensions:
            X509v3 Basic Constraints: 
                CA:FALSE
            X509v3 Key Usage: 
                Digital Signature, Non Repudiation, Key Encipherment
            Netscape Comment: 
                GmSSL Generated Certificate
            X509v3 Subject Key Identifier: 
                ED:9D:A7:3C:5B:C3:DB:CA:9F:50:DD:49:E7:44:FA:5A:2E:25:77:06
            X509v3 Authority Key Identifier: 
                keyid:16:50:EF:3B:A0:23:E6:0D:47:A3:CC:0C:1F:A5:2E:92:D8:32:64:0D

    Signature Algorithm: sm2sign-with-sm3
         30:44:02:20:29:3e:73:1c:3d:d9:d3:01:8e:1e:67:45:46:fc:
         48:60:09:29:f6:cd:ad:9b:b1:46:c1:dc:61:3b:fc:51:06:4f:
         02:20:70:44:34:11:93:45:9a:c2:da:d1:a4:3a:c6:99:c0:6e:
         69:05:01:f9:45:ec:3f:45:25:68:6f:fb:79:96:88:6f
-----BEGIN CERTIFICATE-----
MIICOjCCAeGgAwIBAgIBATAKBggqgRzPVQGDdTBqMQswCQYDVQQGEwJDTjERMA8G
A1UECAwIc2hhbmRvbmcxDjAMBgNVBAcMBWppbmFuMQ8wDQYDVQQKDAZjdmljc2Ux
EzARBgNVBAsMCmluZm9yZ3VhcmQxEjAQBgNVBAMMCWxvY2FsaG9zdDAeFw0yMzAy
MTUwMjI5NDFaFw0zMzAyMTIwMjI5NDFaMFoxCzAJBgNVBAYTAkNOMREwDwYDVQQI
DAhzaGFuZG9uZzEPMA0GA1UECgwGY3ZpY3NlMRMwEQYDVQQLDAppbmZvcmd1YXJk
MRIwEAYDVQQDDAlsb2NhbGhvc3QwWTATBgcqhkjOPQIBBggqgRzPVQGCLQNCAAT+
Wk4iI08BTmREyFAqu2N7x6OjMMr3/iFSUMcG+92ToYPjhU3n82dWm/GkJCDn4gr7
eZnbpakd0ribzqLsqRIIo4GHMIGEMAkGA1UdEwQCMAAwCwYDVR0PBAQDAgXgMCoG
CWCGSAGG+EIBDQQdFhtHbVNTTCBHZW5lcmF0ZWQgQ2VydGlmaWNhdGUwHQYDVR0O
BBYEFO2dpzxbw9vKn1DdSedE+louJXcGMB8GA1UdIwQYMBaAFBZQ7zugI+YNR6PM
DB+lLpLYMmQNMAoGCCqBHM9VAYN1A0cAMEQCICk+cxw92dMBjh5nRUb8SGAJKfbN
rZuxRsHcYTv8UQZPAiBwRDQRk0WawtrRpDrGmcBuaQUB+UXsP0UlaG/7eZaIbw==
-----END CERTIFICATE-----
