Certificate:
    Data:
        Version: 3 (0x2)
        Serial Number: 2 (0x2)
    Signature Algorithm: sm2sign-with-sm3
        Issuer: C=CN, ST=shandong, L=jinan, O=cvicse, OU=inforguard, CN=localhost
        Validity
            Not Before: Feb 15 02:31:30 2023 GMT
            Not After : Feb 12 02:31:30 2033 GMT
        Subject: C=CN, ST=shandong, O=cvicse, OU=inforguard, CN=localhost
        Subject Public Key Info:
            Public Key Algorithm: id-ecPublicKey
                Public-Key: (256 bit)
                pub:
                    04:84:f8:74:6e:db:9a:b0:d5:5d:22:99:60:8a:d1:
                    3a:19:5a:46:05:e4:9c:00:5a:6e:a0:f8:ae:b2:73:
                    8f:72:5d:d6:c2:77:6f:70:45:ed:1a:1e:47:c0:e6:
                    eb:6b:d2:91:2e:8a:a2:49:6e:aa:43:8d:8d:40:24:
                    44:86:47:3f:76
                ASN1 OID: sm2p256v1
                NIST CURVE: SM2
        X509v3 extensions:
            X509v3 Basic Constraints: 
                CA:FALSE
            X509v3 Key Usage: 
                Digital Signature, Non Repudiation, Key Encipherment
            Netscape Comment: 
                GmSSL Generated Certificate
            X509v3 Subject Key Identifier: 
                79:B1:58:EF:DF:69:C3:9C:F7:F4:2E:6D:F4:62:65:CD:E2:42:5F:92
            X509v3 Authority Key Identifier: 
                keyid:16:50:EF:3B:A0:23:E6:0D:47:A3:CC:0C:1F:A5:2E:92:D8:32:64:0D

    Signature Algorithm: sm2sign-with-sm3
         30:46:02:21:00:9d:12:b4:9a:8f:7a:68:70:0a:48:c4:cb:e3:
         e5:a1:c8:5c:18:84:e7:65:29:10:96:f8:d8:8a:8a:88:b1:df:
         64:02:21:00:e5:bf:63:b9:5a:5c:51:95:a5:c5:56:1e:d0:8a:
         94:d2:82:7c:28:15:87:15:45:97:93:34:66:9e:ed:62:83:15
-----BEGIN CERTIFICATE-----
MIICPDCCAeGgAwIBAgIBAjAKBggqgRzPVQGDdTBqMQswCQYDVQQGEwJDTjERMA8G
A1UECAwIc2hhbmRvbmcxDjAMBgNVBAcMBWppbmFuMQ8wDQYDVQQKDAZjdmljc2Ux
EzARBgNVBAsMCmluZm9yZ3VhcmQxEjAQBgNVBAMMCWxvY2FsaG9zdDAeFw0yMzAy
MTUwMjMxMzBaFw0zMzAyMTIwMjMxMzBaMFoxCzAJBgNVBAYTAkNOMREwDwYDVQQI
DAhzaGFuZG9uZzEPMA0GA1UECgwGY3ZpY3NlMRMwEQYDVQQLDAppbmZvcmd1YXJk
MRIwEAYDVQQDDAlsb2NhbGhvc3QwWTATBgcqhkjOPQIBBggqgRzPVQGCLQNCAASE
+HRu25qw1V0imWCK0ToZWkYF5JwAWm6g+K6yc49yXdbCd29wRe0aHkfA5utr0pEu
iqJJbqpDjY1AJESGRz92o4GHMIGEMAkGA1UdEwQCMAAwCwYDVR0PBAQDAgXgMCoG
CWCGSAGG+EIBDQQdFhtHbVNTTCBHZW5lcmF0ZWQgQ2VydGlmaWNhdGUwHQYDVR0O
BBYEFHmxWO/facOc9/QubfRiZc3iQl+SMB8GA1UdIwQYMBaAFBZQ7zugI+YNR6PM
DB+lLpLYMmQNMAoGCCqBHM9VAYN1A0kAMEYCIQCdErSaj3pocApIxMvj5aHIXBiE
52UpEJb42IqKiLHfZAIhAOW/Y7laXFGVpcVWHtCKlNKCfCgVhxVFl5M0Zp7tYoMV
-----END CERTIFICATE-----
